target datalayout = "e-m:e-p270:32:32-p271:32:32-p272:64:64-i64:64-i128:128-f80:128-n8:16:32:64-S128"
target triple = "x86_64-pc-linux-gnu"

%struct.AVRational = type { i32, i32 }
%struct.AVCodecParameters = type { i32, i32, i32, ptr, i32, ptr, i32, i32, i64, i32, i32, i32, i32, i32, i32, %struct.AVRational, %struct.AVRational, i32, i32, i32, i32, i32, i32, i32, %struct.AVChannelLayout, i32, i32, i32, i32, i32, i32 }
%struct.AVChannelLayout = type { i32, i32, %union.anon, ptr }
%union.anon = type { i64 }

@.str.68 = private unnamed_addr constant [21 x i8] c"Too much extradata!\0A\00", align 1
@.str.76 = private unnamed_addr constant [45 x i8] c"Cannot allocate memory for the config info.\0A\00", align 1
@.str.77 = private unnamed_addr constant [10 x i8] c"; config=\00", align 1

; Function Attrs: nounwind uwtable
define internal i32 @extradata2config(ptr noundef %0, ptr noundef %1, ptr noundef %2) #0 {
  %4 = alloca i32, align 4
  %5 = alloca ptr, align 8
  %6 = alloca ptr, align 8
  %7 = alloca ptr, align 8
  %8 = alloca ptr, align 8
  %9 = alloca i32, align 4
  store ptr %0, ptr %5, align 8, !tbaa !13
  store ptr %1, ptr %6, align 8, !tbaa !25
  store ptr %2, ptr %7, align 8, !tbaa !97
  call void @llvm.lifetime.start.p0(i64 8, ptr %8) #8
  %10 = load ptr, ptr %7, align 8, !tbaa !97
  store ptr null, ptr %10, align 8, !tbaa !4
  %11 = load ptr, ptr %6, align 8, !tbaa !25
  %12 = getelementptr inbounds nuw %struct.AVCodecParameters, ptr %11, i32 0, i32 4
  %13 = load i32, ptr %12, align 8, !tbaa !31
  %14 = icmp sgt i32 %13, 1073741818
  br i1 %14, label %15, label %17

15:                                               ; preds = %3
  %16 = load ptr, ptr %5, align 8, !tbaa !13
  call void (ptr, i32, ptr, ...) @av_log(ptr noundef %16, i32 noundef 16, ptr noundef @.str.68)
  store i32 -1094995529, ptr %4, align 4
  store i32 1, ptr %9, align 4
  br label %42

17:                                               ; preds = %3
  %18 = load ptr, ptr %6, align 8, !tbaa !25
  %19 = getelementptr inbounds nuw %struct.AVCodecParameters, ptr %18, i32 0, i32 4
  %20 = load i32, ptr %19, align 8, !tbaa !31
  %21 = mul nsw i32 %20, 2
  %22 = add nsw i32 10, %21
  %23 = sext i32 %22 to i64
  %24 = call noalias ptr @av_malloc(i64 noundef %23)
  store ptr %24, ptr %8, align 8, !tbaa !4
  %25 = load ptr, ptr %8, align 8, !tbaa !4
  %26 = icmp ne ptr %25, null
  br i1 %26, label %29, label %27

27:                                               ; preds = %17
  %28 = load ptr, ptr %5, align 8, !tbaa !13
  call void (ptr, i32, ptr, ...) @av_log(ptr noundef %28, i32 noundef 16, ptr noundef @.str.76)
  store i32 -12, ptr %4, align 4
  store i32 1, ptr %9, align 4
  br label %42

29:                                               ; preds = %17
  %30 = load ptr, ptr %8, align 8, !tbaa !4
  call void @llvm.memcpy.p0.p0.i64(ptr align 1 %30, ptr align 1 @.str.77, i64 9, i1 false)
  %31 = load ptr, ptr %8, align 8, !tbaa !4
  %32 = getelementptr inbounds i8, ptr %31, i64 9
  %33 = load ptr, ptr %6, align 8, !tbaa !25
  %34 = getelementptr inbounds nuw %struct.AVCodecParameters, ptr %33, i32 0, i32 3
  %35 = load ptr, ptr %34, align 8, !tbaa !99
  %36 = load ptr, ptr %6, align 8, !tbaa !25
  %37 = getelementptr inbounds nuw %struct.AVCodecParameters, ptr %36, i32 0, i32 4
  %38 = load i32, ptr %37, align 8, !tbaa !31
  %39 = call ptr @ff_data_to_hex(ptr noundef %32, ptr noundef %35, i32 noundef %38, i32 noundef 0)
  %40 = load ptr, ptr %8, align 8, !tbaa !4
  %41 = load ptr, ptr %7, align 8, !tbaa !97
  store ptr %40, ptr %41, align 8, !tbaa !4
  store i32 0, ptr %4, align 4
  store i32 1, ptr %9, align 4
  br label %42

42:                                               ; preds = %29, %27, %15
  call void @llvm.lifetime.end.p0(i64 8, ptr %8) #8
  %43 = load i32, ptr %4, align 4
  ret i32 %43
}