; Function Attrs: nounwind uwtable
define internal fastcc range(i32 -1094995529, 1) i32 @extradata2config(ptr noundef %0, ptr noundef readonly captures(none) %1, ptr noundef nonnull writeonly captures(none) initializes((0, 8)) %2) unnamed_addr #0 {
  store ptr null, ptr %2, align 8, !tbaa !23
  %4 = getelementptr inbounds nuw i8, ptr %1, i64 24
  %5 = load i32, ptr %4, align 8, !tbaa !25
  %6 = icmp sgt i32 %5, 1073741818
  br i1 %6, label %7, label %8

7:                                                ; preds = %3
  tail call void (ptr, i32, ptr, ...) @av_log(ptr noundef %0, i32 noundef 16, ptr noundef nonnull @.str.68) #10
  br label %20

8:                                                ; preds = %3
  %9 = shl nsw i32 %5, 1
  %10 = add nsw i32 %9, 10
  %11 = sext i32 %10 to i64
  %12 = tail call noalias ptr @av_malloc(i64 noundef %11) #10
  %.not = icmp eq ptr %12, null
  br i1 %.not, label %13, label %14

13:                                               ; preds = %8
  tail call void (ptr, i32, ptr, ...) @av_log(ptr noundef %0, i32 noundef 16, ptr noundef nonnull @.str.76) #10
  br label %20

14:                                               ; preds = %8
  tail call void @llvm.memcpy.p0.p0.i64(ptr noundef nonnull align 1 dereferenceable(9) %12, ptr noundef nonnull align 1 dereferenceable(9) @.str.77, i64 9, i1 false)
  %15 = getelementptr inbounds nuw i8, ptr %12, i64 9
  %16 = getelementptr inbounds nuw i8, ptr %1, i64 16
  %17 = load ptr, ptr %16, align 8, !tbaa !26
  %18 = load i32, ptr %4, align 8, !tbaa !25
  %19 = tail call ptr @ff_data_to_hex(ptr noundef nonnull %15, ptr noundef %17, i32 noundef %18, i32 noundef 0) #10
  store ptr %12, ptr %2, align 8, !tbaa !23
  br label %20

20:                                               ; preds = %14, %13, %7
  %.0 = phi i32 [ -1094995529, %7 ], [ 0, %14 ], [ -12, %13 ]
  ret i32 %.0
}